; Function Attrs: mustprogress nofree norecurse nosync nounwind willreturn memory(read, inaccessiblemem: none) uwtable
define noundef double @_ZNK18colvar_grid_scalar8integralEv(ptr noundef nonnull readonly align 8 captures(none) dereferenceable(712) %0) local_unnamed_addr #18 align 2 {
  %2 = getelementptr inbounds nuw i8, ptr %0, i64 384
  %3 = load i64, ptr %2, align 8, !tbaa !358
  %.not = icmp eq i64 %3, 0
  br i1 %.not, label %.preheader, label %.lr.ph

.lr.ph:                                           ; preds = %1
  %4 = getelementptr inbounds nuw i8, ptr %0, i64 392
  %5 = load ptr, ptr %4, align 8, !tbaa !89
  br label %14

.preheader:                                       ; preds = %14, %1
  %.012.lcssa = phi double [ 0.000000e+00, %1 ], [ %17, %14 ]
  %6 = getelementptr inbounds nuw i8, ptr %0, i64 672
  %7 = getelementptr inbounds nuw i8, ptr %0, i64 680
  %8 = load ptr, ptr %7, align 8, !tbaa !126
  %9 = load ptr, ptr %6, align 8, !tbaa !89
  %.not19 = icmp eq ptr %8, %9
  br i1 %.not19, label %._crit_edge, label %.lr.ph17.preheader

.lr.ph17.preheader:                               ; preds = %.preheader
  %10 = ptrtoint ptr %8 to i64
  %11 = ptrtoint ptr %9 to i64
  %12 = sub i64 %10, %11
  %13 = ashr exact i64 %12, 3
  %umax = tail call i64 @llvm.umax.i64(i64 %13, i64 1)
  br label %.lr.ph17

14:                                               ; preds = %.lr.ph, %14
  %.01114 = phi i64 [ 0, %.lr.ph ], [ %18, %14 ]
  %.01213 = phi double [ 0.000000e+00, %.lr.ph ], [ %17, %14 ]
  %15 = getelementptr inbounds nuw double, ptr %5, i64 %.01114
  %16 = load double, ptr %15, align 8, !tbaa !90
  %17 = fadd double %.01213, %16
  %18 = add nuw i64 %.01114, 1
  %exitcond.not = icmp eq i64 %18, %3
  br i1 %exitcond.not, label %.preheader, label %14, !llvm.loop !506

._crit_edge:                                      ; preds = %.lr.ph17, %.preheader
  %.010.lcssa = phi double [ 1.000000e+00, %.preheader ], [ %22, %.lr.ph17 ]
  %19 = fmul double %.012.lcssa, %.010.lcssa
  ret double %19

.lr.ph17:                                         ; preds = %.lr.ph17.preheader, %.lr.ph17
  %.016 = phi i64 [ %23, %.lr.ph17 ], [ 0, %.lr.ph17.preheader ]
  %.01015 = phi double [ %22, %.lr.ph17 ], [ 1.000000e+00, %.lr.ph17.preheader ]
  %20 = getelementptr inbounds nuw double, ptr %9, i64 %.016
  %21 = load double, ptr %20, align 8, !tbaa !90
  %22 = fmul double %.01015, %21
  %23 = add nuw i64 %.016, 1
  %exitcond21.not = icmp eq i64 %23, %umax
  br i1 %exitcond21.not, label %._crit_edge, label %.lr.ph17, !llvm.loop !507
}